; ModuleID = 'class.cpp'
source_filename = "class.cpp"
target datalayout = "e-m:e-i64:64-f80:128-n8:16:32:64-S128"
target triple = "x86_64-unknown-linux-gnu"

%"class.std::ios_base::Init" = type { i8 }
%class.Person = type { %"class.std::__cxx11::basic_string", %"class.std::__cxx11::basic_string" }
%"class.std::__cxx11::basic_string" = type { %"struct.std::__cxx11::basic_string<char, std::char_traits<char>, std::allocator<char> >::_Alloc_hider", i64, %union.anon }
%"struct.std::__cxx11::basic_string<char, std::char_traits<char>, std::allocator<char> >::_Alloc_hider" = type { i8* }
%union.anon = type { i64, [8 x i8] }
%"class.std::allocator" = type { i8 }

$_ZN6PersonC2Ev = comdat any

$_ZN6Person7setNameENSt7__cxx1112basic_stringIcSt11char_traitsIcESaIcEEE = comdat any

$_ZN6Person5getIDB5cxx11Ev = comdat any

$_ZN6PersonD2Ev = comdat any

$_ZN6Person8updateIDEv = comdat any

@_ZStL8__ioinit = internal global %"class.std::ios_base::Init" zeroinitializer, align 1
@__dso_handle = external hidden global i8
@.str = private unnamed_addr constant [2 x i8] c"A\00", align 1
@.str.1 = private unnamed_addr constant [2 x i8] c"B\00", align 1
@llvm.global_ctors = appending global [1 x { i32, void ()*, i8* }] [{ i32, void ()*, i8* } { i32 65535, void ()* @_GLOBAL__sub_I_class.cpp, i8* null }]

; Function Attrs: noinline uwtable
define internal void @__cxx_global_var_init() #0 section ".text.startup" {
  call void @_ZNSt8ios_base4InitC1Ev(%"class.std::ios_base::Init"* @_ZStL8__ioinit)
  %1 = call i32 @__cxa_atexit(void (i8*)* bitcast (void (%"class.std::ios_base::Init"*)* @_ZNSt8ios_base4InitD1Ev to void (i8*)*), i8* getelementptr inbounds (%"class.std::ios_base::Init", %"class.std::ios_base::Init"* @_ZStL8__ioinit, i32 0, i32 0), i8* @__dso_handle) #3
  ret void
}

declare dso_local void @_ZNSt8ios_base4InitC1Ev(%"class.std::ios_base::Init"*) unnamed_addr #1

; Function Attrs: nounwind
declare dso_local void @_ZNSt8ios_base4InitD1Ev(%"class.std::ios_base::Init"*) unnamed_addr #2

; Function Attrs: nounwind
declare dso_local i32 @__cxa_atexit(void (i8*)*, i8*, i8*) #3

; Function Attrs: noinline norecurse optnone uwtable
define dso_local i32 @main() #4 personality i8* bitcast (i32 (...)* @__gxx_personality_v0 to i8*) {
  %1 = alloca i32, align 4
  %2 = alloca %class.Person, align 8
  %3 = alloca %"class.std::__cxx11::basic_string", align 8
  %4 = alloca %"class.std::allocator", align 1
  %5 = alloca i8*
  %6 = alloca i32
  %7 = alloca %"class.std::__cxx11::basic_string", align 8
  %8 = alloca %"class.std::__cxx11::basic_string", align 8
  %9 = alloca %class.Person, align 8
  %10 = alloca %"class.std::__cxx11::basic_string", align 8
  %11 = alloca %"class.std::allocator", align 1
  %12 = alloca %"class.std::__cxx11::basic_string", align 8
  %13 = alloca %"class.std::__cxx11::basic_string", align 8
  store i32 0, i32* %1, align 4
  call void @_ZN6PersonC2Ev(%class.Person* %2) #3
  call void @_ZNSaIcEC1Ev(%"class.std::allocator"* %4) #3
  invoke void @_ZNSt7__cxx1112basic_stringIcSt11char_traitsIcESaIcEEC1EPKcRKS3_(%"class.std::__cxx11::basic_string"* %3, i8* getelementptr inbounds ([2 x i8], [2 x i8]* @.str, i64 0, i64 0), %"class.std::allocator"* dereferenceable(1) %4)
          to label %14 unwind label %23

14:                                               ; preds = %0
  call void @_ZNSaIcED1Ev(%"class.std::allocator"* %4) #3
  invoke void @_ZNSt7__cxx1112basic_stringIcSt11char_traitsIcESaIcEEC1ERKS4_(%"class.std::__cxx11::basic_string"* %7, %"class.std::__cxx11::basic_string"* dereferenceable(32) %3)
          to label %15 unwind label %27

15:                                               ; preds = %14
  invoke void @_ZN6Person7setNameENSt7__cxx1112basic_stringIcSt11char_traitsIcESaIcEEE(%class.Person* %2, %"class.std::__cxx11::basic_string"* %7)
          to label %16 unwind label %31

16:                                               ; preds = %15
  call void @_ZNSt7__cxx1112basic_stringIcSt11char_traitsIcESaIcEED1Ev(%"class.std::__cxx11::basic_string"* %7) #3
  invoke void @_ZN6Person5getIDB5cxx11Ev(%"class.std::__cxx11::basic_string"* sret %8, %class.Person* %2)
          to label %17 unwind label %27

17:                                               ; preds = %16
  call void @_ZN6PersonC2Ev(%class.Person* %9) #3
  call void @_ZNSaIcEC1Ev(%"class.std::allocator"* %11) #3
  invoke void @_ZNSt7__cxx1112basic_stringIcSt11char_traitsIcESaIcEEC1EPKcRKS3_(%"class.std::__cxx11::basic_string"* %10, i8* getelementptr inbounds ([2 x i8], [2 x i8]* @.str.1, i64 0, i64 0), %"class.std::allocator"* dereferenceable(1) %11)
          to label %18 unwind label %35

18:                                               ; preds = %17
  call void @_ZNSaIcED1Ev(%"class.std::allocator"* %11) #3
  invoke void @_ZNSt7__cxx1112basic_stringIcSt11char_traitsIcESaIcEEC1ERKS4_(%"class.std::__cxx11::basic_string"* %12, %"class.std::__cxx11::basic_string"* dereferenceable(32) %10)
          to label %19 unwind label %39

19:                                               ; preds = %18
  invoke void @_ZN6Person7setNameENSt7__cxx1112basic_stringIcSt11char_traitsIcESaIcEEE(%class.Person* %9, %"class.std::__cxx11::basic_string"* %12)
          to label %20 unwind label %43

20:                                               ; preds = %19
  call void @_ZNSt7__cxx1112basic_stringIcSt11char_traitsIcESaIcEED1Ev(%"class.std::__cxx11::basic_string"* %12) #3
  invoke void @_ZN6Person5getIDB5cxx11Ev(%"class.std::__cxx11::basic_string"* sret %13, %class.Person* %9)
          to label %21 unwind label %39

21:                                               ; preds = %20
  store i32 0, i32* %1, align 4
  call void @_ZNSt7__cxx1112basic_stringIcSt11char_traitsIcESaIcEED1Ev(%"class.std::__cxx11::basic_string"* %13) #3
  call void @_ZNSt7__cxx1112basic_stringIcSt11char_traitsIcESaIcEED1Ev(%"class.std::__cxx11::basic_string"* %10) #3
  call void @_ZN6PersonD2Ev(%class.Person* %9) #3
  call void @_ZNSt7__cxx1112basic_stringIcSt11char_traitsIcESaIcEED1Ev(%"class.std::__cxx11::basic_string"* %8) #3
  call void @_ZNSt7__cxx1112basic_stringIcSt11char_traitsIcESaIcEED1Ev(%"class.std::__cxx11::basic_string"* %3) #3
  call void @_ZN6PersonD2Ev(%class.Person* %2) #3
  %22 = load i32, i32* %1, align 4
  ret i32 %22

23:                                               ; preds = %0
  %24 = landingpad { i8*, i32 }
          cleanup
  %25 = extractvalue { i8*, i32 } %24, 0
  store i8* %25, i8** %5, align 8
  %26 = extractvalue { i8*, i32 } %24, 1
  store i32 %26, i32* %6, align 4
  call void @_ZNSaIcED1Ev(%"class.std::allocator"* %4) #3
  br label %50

27:                                               ; preds = %16, %14
  %28 = landingpad { i8*, i32 }
          cleanup
  %29 = extractvalue { i8*, i32 } %28, 0
  store i8* %29, i8** %5, align 8
  %30 = extractvalue { i8*, i32 } %28, 1
  store i32 %30, i32* %6, align 4
  br label %49

31:                                               ; preds = %15
  %32 = landingpad { i8*, i32 }
          cleanup
  %33 = extractvalue { i8*, i32 } %32, 0
  store i8* %33, i8** %5, align 8
  %34 = extractvalue { i8*, i32 } %32, 1
  store i32 %34, i32* %6, align 4
  call void @_ZNSt7__cxx1112basic_stringIcSt11char_traitsIcESaIcEED1Ev(%"class.std::__cxx11::basic_string"* %7) #3
  br label %49

35:                                               ; preds = %17
  %36 = landingpad { i8*, i32 }
          cleanup
  %37 = extractvalue { i8*, i32 } %36, 0
  store i8* %37, i8** %5, align 8
  %38 = extractvalue { i8*, i32 } %36, 1
  store i32 %38, i32* %6, align 4
  call void @_ZNSaIcED1Ev(%"class.std::allocator"* %11) #3
  br label %48

39:                                               ; preds = %20, %18
  %40 = landingpad { i8*, i32 }
          cleanup
  %41 = extractvalue { i8*, i32 } %40, 0
  store i8* %41, i8** %5, align 8
  %42 = extractvalue { i8*, i32 } %40, 1
  store i32 %42, i32* %6, align 4
  br label %47

43:                                               ; preds = %19
  %44 = landingpad { i8*, i32 }
          cleanup
  %45 = extractvalue { i8*, i32 } %44, 0
  store i8* %45, i8** %5, align 8
  %46 = extractvalue { i8*, i32 } %44, 1
  store i32 %46, i32* %6, align 4
  call void @_ZNSt7__cxx1112basic_stringIcSt11char_traitsIcESaIcEED1Ev(%"class.std::__cxx11::basic_string"* %12) #3
  br label %47

47:                                               ; preds = %43, %39
  call void @_ZNSt7__cxx1112basic_stringIcSt11char_traitsIcESaIcEED1Ev(%"class.std::__cxx11::basic_string"* %10) #3
  br label %48

48:                                               ; preds = %47, %35
  call void @_ZN6PersonD2Ev(%class.Person* %9) #3
  call void @_ZNSt7__cxx1112basic_stringIcSt11char_traitsIcESaIcEED1Ev(%"class.std::__cxx11::basic_string"* %8) #3
  br label %49

49:                                               ; preds = %48, %31, %27
  call void @_ZNSt7__cxx1112basic_stringIcSt11char_traitsIcESaIcEED1Ev(%"class.std::__cxx11::basic_string"* %3) #3
  br label %50

50:                                               ; preds = %49, %23
  call void @_ZN6PersonD2Ev(%class.Person* %2) #3
  br label %51

51:                                               ; preds = %50
  %52 = load i8*, i8** %5, align 8
  %53 = load i32, i32* %6, align 4
  %54 = insertvalue { i8*, i32 } undef, i8* %52, 0
  %55 = insertvalue { i8*, i32 } %54, i32 %53, 1
  resume { i8*, i32 } %55
}

; Function Attrs: noinline nounwind optnone uwtable
define linkonce_odr dso_local void @_ZN6PersonC2Ev(%class.Person*) unnamed_addr #5 comdat align 2 {
  %2 = alloca %class.Person*, align 8
  store %class.Person* %0, %class.Person** %2, align 8
  %3 = load %class.Person*, %class.Person** %2, align 8
  %4 = getelementptr inbounds %class.Person, %class.Person* %3, i32 0, i32 0
  call void @_ZNSt7__cxx1112basic_stringIcSt11char_traitsIcESaIcEEC1Ev(%"class.std::__cxx11::basic_string"* %4) #3
  %5 = getelementptr inbounds %class.Person, %class.Person* %3, i32 0, i32 1
  call void @_ZNSt7__cxx1112basic_stringIcSt11char_traitsIcESaIcEEC1Ev(%"class.std::__cxx11::basic_string"* %5) #3
  ret void
}

; Function Attrs: nounwind
declare dso_local void @_ZNSaIcEC1Ev(%"class.std::allocator"*) unnamed_addr #2

declare dso_local void @_ZNSt7__cxx1112basic_stringIcSt11char_traitsIcESaIcEEC1EPKcRKS3_(%"class.std::__cxx11::basic_string"*, i8*, %"class.std::allocator"* dereferenceable(1)) unnamed_addr #1

declare dso_local i32 @__gxx_personality_v0(...)

; Function Attrs: nounwind
declare dso_local void @_ZNSaIcED1Ev(%"class.std::allocator"*) unnamed_addr #2

; Function Attrs: noinline optnone uwtable
define linkonce_odr dso_local void @_ZN6Person7setNameENSt7__cxx1112basic_stringIcSt11char_traitsIcESaIcEEE(%class.Person*, %"class.std::__cxx11::basic_string"*) #6 comdat align 2 {
  %3 = alloca %class.Person*, align 8
  store %class.Person* %0, %class.Person** %3, align 8
  %4 = load %class.Person*, %class.Person** %3, align 8
  %5 = getelementptr inbounds %class.Person, %class.Person* %4, i32 0, i32 0
  %6 = call dereferenceable(32) %"class.std::__cxx11::basic_string"* @_ZNSt7__cxx1112basic_stringIcSt11char_traitsIcESaIcEEaSERKS4_(%"class.std::__cxx11::basic_string"* %5, %"class.std::__cxx11::basic_string"* dereferenceable(32) %1)
  call void @_ZN6Person8updateIDEv(%class.Person* %4)
  ret void
}

declare dso_local void @_ZNSt7__cxx1112basic_stringIcSt11char_traitsIcESaIcEEC1ERKS4_(%"class.std::__cxx11::basic_string"*, %"class.std::__cxx11::basic_string"* dereferenceable(32)) unnamed_addr #1

; Function Attrs: nounwind
declare dso_local void @_ZNSt7__cxx1112basic_stringIcSt11char_traitsIcESaIcEED1Ev(%"class.std::__cxx11::basic_string"*) unnamed_addr #2

; Function Attrs: noinline optnone uwtable
define linkonce_odr dso_local void @_ZN6Person5getIDB5cxx11Ev(%"class.std::__cxx11::basic_string"* noalias sret, %class.Person*) #6 comdat align 2 {
  %3 = alloca i8*, align 8
  %4 = alloca %class.Person*, align 8
  %5 = alloca i1, align 1
  %6 = bitcast %"class.std::__cxx11::basic_string"* %0 to i8*
  store i8* %6, i8** %3, align 8
  store %class.Person* %1, %class.Person** %4, align 8
  %7 = load %class.Person*, %class.Person** %4, align 8
  store i1 false, i1* %5, align 1
  %8 = getelementptr inbounds %class.Person, %class.Person* %7, i32 0, i32 1
  call void @_ZNSt7__cxx1112basic_stringIcSt11char_traitsIcESaIcEEC1ERKS4_(%"class.std::__cxx11::basic_string"* %0, %"class.std::__cxx11::basic_string"* dereferenceable(32) %8)
  store i1 true, i1* %5, align 1
  %9 = load i1, i1* %5, align 1
  br i1 %9, label %11, label %10

10:                                               ; preds = %2
  call void @_ZNSt7__cxx1112basic_stringIcSt11char_traitsIcESaIcEED1Ev(%"class.std::__cxx11::basic_string"* %0) #3
  br label %11

11:                                               ; preds = %10, %2
  ret void
}

; Function Attrs: noinline nounwind optnone uwtable
define linkonce_odr dso_local void @_ZN6PersonD2Ev(%class.Person*) unnamed_addr #5 comdat align 2 {
  %2 = alloca %class.Person*, align 8
  store %class.Person* %0, %class.Person** %2, align 8
  %3 = load %class.Person*, %class.Person** %2, align 8
  %4 = getelementptr inbounds %class.Person, %class.Person* %3, i32 0, i32 1
  call void @_ZNSt7__cxx1112basic_stringIcSt11char_traitsIcESaIcEED1Ev(%"class.std::__cxx11::basic_string"* %4) #3
  %5 = getelementptr inbounds %class.Person, %class.Person* %3, i32 0, i32 0
  call void @_ZNSt7__cxx1112basic_stringIcSt11char_traitsIcESaIcEED1Ev(%"class.std::__cxx11::basic_string"* %5) #3
  ret void
}

; Function Attrs: nounwind
declare dso_local void @_ZNSt7__cxx1112basic_stringIcSt11char_traitsIcESaIcEEC1Ev(%"class.std::__cxx11::basic_string"*) unnamed_addr #2

declare dso_local dereferenceable(32) %"class.std::__cxx11::basic_string"* @_ZNSt7__cxx1112basic_stringIcSt11char_traitsIcESaIcEEaSERKS4_(%"class.std::__cxx11::basic_string"*, %"class.std::__cxx11::basic_string"* dereferenceable(32)) #1

; Function Attrs: noinline optnone uwtable
define linkonce_odr dso_local void @_ZN6Person8updateIDEv(%class.Person*) #6 comdat align 2 personality i8* bitcast (i32 (...)* @__gxx_personality_v0 to i8*) {
  %2 = alloca %class.Person*, align 8
  %3 = alloca %"class.std::__cxx11::basic_string", align 8
  %4 = alloca i8*
  %5 = alloca i32
  store %class.Person* %0, %class.Person** %2, align 8
  %6 = load %class.Person*, %class.Person** %2, align 8
  %7 = getelementptr inbounds %class.Person, %class.Person* %6, i32 0, i32 0
  call void @_ZNSt7__cxx1112basic_stringIcSt11char_traitsIcESaIcEEC1ERKS4_(%"class.std::__cxx11::basic_string"* %3, %"class.std::__cxx11::basic_string"* dereferenceable(32) %7)
  %8 = getelementptr inbounds %class.Person, %class.Person* %6, i32 0, i32 1
  %9 = invoke dereferenceable(32) %"class.std::__cxx11::basic_string"* @_ZNSt7__cxx1112basic_stringIcSt11char_traitsIcESaIcEEaSERKS4_(%"class.std::__cxx11::basic_string"* %8, %"class.std::__cxx11::basic_string"* dereferenceable(32) %3)
          to label %10 unwind label %11

10:                                               ; preds = %1
  call void @_ZNSt7__cxx1112basic_stringIcSt11char_traitsIcESaIcEED1Ev(%"class.std::__cxx11::basic_string"* %3) #3
  ret void

11:                                               ; preds = %1
  %12 = landingpad { i8*, i32 }
          cleanup
  %13 = extractvalue { i8*, i32 } %12, 0
  store i8* %13, i8** %4, align 8
  %14 = extractvalue { i8*, i32 } %12, 1
  store i32 %14, i32* %5, align 4
  call void @_ZNSt7__cxx1112basic_stringIcSt11char_traitsIcESaIcEED1Ev(%"class.std::__cxx11::basic_string"* %3) #3
  br label %15

15:                                               ; preds = %11
  %16 = load i8*, i8** %4, align 8
  %17 = load i32, i32* %5, align 4
  %18 = insertvalue { i8*, i32 } undef, i8* %16, 0
  %19 = insertvalue { i8*, i32 } %18, i32 %17, 1
  resume { i8*, i32 } %19
}

; Function Attrs: noinline uwtable
define internal void @_GLOBAL__sub_I_class.cpp() #0 section ".text.startup" {
  call void @__cxx_global_var_init()
  ret void
}

attributes #0 = { noinline uwtable "correctly-rounded-divide-sqrt-fp-math"="false" "disable-tail-calls"="false" "less-precise-fpmad"="false" "min-legal-vector-width"="0" "no-frame-pointer-elim"="true" "no-frame-pointer-elim-non-leaf" "no-infs-fp-math"="false" "no-jump-tables"="false" "no-nans-fp-math"="false" "no-signed-zeros-fp-math"="false" "no-trapping-math"="false" "stack-protector-buffer-size"="8" "target-cpu"="x86-64" "target-features"="+cx8,+fxsr,+mmx,+sse,+sse2,+x87" "unsafe-fp-math"="false" "use-soft-float"="false" }
attributes #1 = { "correctly-rounded-divide-sqrt-fp-math"="false" "disable-tail-calls"="false" "less-precise-fpmad"="false" "no-frame-pointer-elim"="true" "no-frame-pointer-elim-non-leaf" "no-infs-fp-math"="false" "no-nans-fp-math"="false" "no-signed-zeros-fp-math"="false" "no-trapping-math"="false" "stack-protector-buffer-size"="8" "target-cpu"="x86-64" "target-features"="+cx8,+fxsr,+mmx,+sse,+sse2,+x87" "unsafe-fp-math"="false" "use-soft-float"="false" }
attributes #2 = { nounwind "correctly-rounded-divide-sqrt-fp-math"="false" "disable-tail-calls"="false" "less-precise-fpmad"="false" "no-frame-pointer-elim"="true" "no-frame-pointer-elim-non-leaf" "no-infs-fp-math"="false" "no-nans-fp-math"="false" "no-signed-zeros-fp-math"="false" "no-trapping-math"="false" "stack-protector-buffer-size"="8" "target-cpu"="x86-64" "target-features"="+cx8,+fxsr,+mmx,+sse,+sse2,+x87" "unsafe-fp-math"="false" "use-soft-float"="false" }
attributes #3 = { nounwind }
attributes #4 = { noinline norecurse optnone uwtable "correctly-rounded-divide-sqrt-fp-math"="false" "disable-tail-calls"="false" "less-precise-fpmad"="false" "min-legal-vector-width"="0" "no-frame-pointer-elim"="true" "no-frame-pointer-elim-non-leaf" "no-infs-fp-math"="false" "no-jump-tables"="false" "no-nans-fp-math"="false" "no-signed-zeros-fp-math"="false" "no-trapping-math"="false" "stack-protector-buffer-size"="8" "target-cpu"="x86-64" "target-features"="+cx8,+fxsr,+mmx,+sse,+sse2,+x87" "unsafe-fp-math"="false" "use-soft-float"="false" }
attributes #5 = { noinline nounwind optnone uwtable "correctly-rounded-divide-sqrt-fp-math"="false" "disable-tail-calls"="false" "less-precise-fpmad"="false" "min-legal-vector-width"="0" "no-frame-pointer-elim"="true" "no-frame-pointer-elim-non-leaf" "no-infs-fp-math"="false" "no-jump-tables"="false" "no-nans-fp-math"="false" "no-signed-zeros-fp-math"="false" "no-trapping-math"="false" "stack-protector-buffer-size"="8" "target-cpu"="x86-64" "target-features"="+cx8,+fxsr,+mmx,+sse,+sse2,+x87" "unsafe-fp-math"="false" "use-soft-float"="false" }
attributes #6 = { noinline optnone uwtable "correctly-rounded-divide-sqrt-fp-math"="false" "disable-tail-calls"="false" "less-precise-fpmad"="false" "min-legal-vector-width"="0" "no-frame-pointer-elim"="true" "no-frame-pointer-elim-non-leaf" "no-infs-fp-math"="false" "no-jump-tables"="false" "no-nans-fp-math"="false" "no-signed-zeros-fp-math"="false" "no-trapping-math"="false" "stack-protector-buffer-size"="8" "target-cpu"="x86-64" "target-features"="+cx8,+fxsr,+mmx,+sse,+sse2,+x87" "unsafe-fp-math"="false" "use-soft-float"="false" }

!llvm.module.flags = !{!0}
!llvm.ident = !{!1}

!0 = !{i32 1, !"wchar_size", i32 4}
!1 = !{!"clang version 9.0.0 (https://github.com/llvm/llvm-project.git 0399d5a9682b3cef71c653373e38890c63c4c365)"}
