; ModuleID = 'zipper_directflow_bulb_struct.cpp'
source_filename = "zipper_directflow_bulb_struct.cpp"
target datalayout = "e-m:e-i64:64-f80:128-n8:16:32:64-S128"
target triple = "x86_64-unknown-linux-gnu"

%"class.std::ios_base::Init" = type { i8 }
%"class.std::basic_ostream" = type { i32 (...)**, %"class.std::basic_ios" }
%"class.std::basic_ios" = type { %"class.std::ios_base", %"class.std::basic_ostream"*, i8, i8, %"class.std::basic_streambuf"*, %"class.std::ctype"*, %"class.std::num_put"*, %"class.std::num_get"* }
%"class.std::ios_base" = type { i32 (...)**, i64, i64, i32, i32, i32, %"struct.std::ios_base::_Callback_list"*, %"struct.std::ios_base::_Words", [8 x %"struct.std::ios_base::_Words"], i32, %"struct.std::ios_base::_Words"*, %"class.std::locale" }
%"struct.std::ios_base::_Callback_list" = type { %"struct.std::ios_base::_Callback_list"*, void (i32, %"class.std::ios_base"*, i32)*, i32, i32 }
%"struct.std::ios_base::_Words" = type { i8*, i64 }
%"class.std::locale" = type { %"class.std::locale::_Impl"* }
%"class.std::locale::_Impl" = type { i32, %"class.std::locale::facet"**, i64, %"class.std::locale::facet"**, i8** }
%"class.std::locale::facet" = type <{ i32 (...)**, i32, [4 x i8] }>
%"class.std::basic_streambuf" = type { i32 (...)**, i8*, i8*, i8*, i8*, i8*, i8*, %"class.std::locale" }
%"class.std::ctype" = type <{ %"class.std::locale::facet.base", [4 x i8], %struct.__locale_struct*, i8, [7 x i8], i32*, i32*, i16*, i8, [256 x i8], [256 x i8], i8, [6 x i8] }>
%"class.std::locale::facet.base" = type <{ i32 (...)**, i32 }>
%struct.__locale_struct = type { [13 x %struct.__locale_data*], i16*, i32*, i32*, [13 x i8*] }
%struct.__locale_data = type opaque
%"class.std::num_put" = type { %"class.std::locale::facet.base", [4 x i8] }
%"class.std::num_get" = type { %"class.std::locale::facet.base", [4 x i8] }
%struct.LightBulb = type { i8, i32 }

$_ZN9LightBulb9setStatusEb = comdat any

$_ZNK9LightBulb12getIntensityEv = comdat any

$_ZN9LightBulb15adjustIntensityEv = comdat any

@_ZStL8__ioinit = internal global %"class.std::ios_base::Init" zeroinitializer, align 1
@__dso_handle = external hidden global i8
@_ZSt4cout = external dso_local global %"class.std::basic_ostream", align 8
@.str = private unnamed_addr constant [18 x i8] c"Bulb 1: Status = \00", align 1
@.str.1 = private unnamed_addr constant [3 x i8] c"on\00", align 1
@.str.2 = private unnamed_addr constant [4 x i8] c"off\00", align 1
@.str.3 = private unnamed_addr constant [15 x i8] c", Intensity = \00", align 1
@.str.4 = private unnamed_addr constant [18 x i8] c"Bulb 2: Status = \00", align 1
@llvm.global_ctors = appending global [1 x { i32, void ()*, i8* }] [{ i32, void ()*, i8* } { i32 65535, void ()* @_GLOBAL__sub_I_zipper_directflow_bulb_struct.cpp, i8* null }]

; Function Attrs: noinline uwtable
define internal void @__cxx_global_var_init() #0 section ".text.startup" {
  call void @_ZNSt8ios_base4InitC1Ev(%"class.std::ios_base::Init"* @_ZStL8__ioinit)
  %1 = call i32 @__cxa_atexit(void (i8*)* bitcast (void (%"class.std::ios_base::Init"*)* @_ZNSt8ios_base4InitD1Ev to void (i8*)*), i8* getelementptr inbounds (%"class.std::ios_base::Init", %"class.std::ios_base::Init"* @_ZStL8__ioinit, i32 0, i32 0), i8* @__dso_handle) #3
  ret void
}

declare dso_local void @_ZNSt8ios_base4InitC1Ev(%"class.std::ios_base::Init"*) unnamed_addr #1

; Function Attrs: nounwind
declare dso_local void @_ZNSt8ios_base4InitD1Ev(%"class.std::ios_base::Init"*) unnamed_addr #2

; Function Attrs: nounwind
declare dso_local i32 @__cxa_atexit(void (i8*)*, i8*, i8*) #3

; Function Attrs: noinline norecurse optnone uwtable
define dso_local i32 @main() #4 {
  %1 = alloca i32, align 4
  %2 = alloca %struct.LightBulb, align 4
  %3 = alloca i8, align 1
  %4 = alloca i32, align 4
  %5 = alloca %struct.LightBulb, align 4
  %6 = alloca i8, align 1
  %7 = alloca i32, align 4
  store i32 0, i32* %1, align 4
  store i8 1, i8* %3, align 1
  %8 = load i8, i8* %3, align 1
  %9 = trunc i8 %8 to i1
  call void @_ZN9LightBulb9setStatusEb(%struct.LightBulb* %2, i1 zeroext %9)
  %10 = call i32 @_ZNK9LightBulb12getIntensityEv(%struct.LightBulb* %2)
  store i32 %10, i32* %4, align 4
  %11 = call dereferenceable(272) %"class.std::basic_ostream"* @_ZStlsISt11char_traitsIcEERSt13basic_ostreamIcT_ES5_PKc(%"class.std::basic_ostream"* dereferenceable(272) @_ZSt4cout, i8* getelementptr inbounds ([18 x i8], [18 x i8]* @.str, i64 0, i64 0))
  %12 = load i8, i8* %3, align 1
  %13 = trunc i8 %12 to i1
  %14 = zext i1 %13 to i64
  %15 = select i1 %13, i8* getelementptr inbounds ([3 x i8], [3 x i8]* @.str.1, i64 0, i64 0), i8* getelementptr inbounds ([4 x i8], [4 x i8]* @.str.2, i64 0, i64 0)
  %16 = call dereferenceable(272) %"class.std::basic_ostream"* @_ZStlsISt11char_traitsIcEERSt13basic_ostreamIcT_ES5_PKc(%"class.std::basic_ostream"* dereferenceable(272) %11, i8* %15)
  %17 = call dereferenceable(272) %"class.std::basic_ostream"* @_ZStlsISt11char_traitsIcEERSt13basic_ostreamIcT_ES5_PKc(%"class.std::basic_ostream"* dereferenceable(272) %16, i8* getelementptr inbounds ([15 x i8], [15 x i8]* @.str.3, i64 0, i64 0))
  %18 = load i32, i32* %4, align 4
  %19 = call dereferenceable(272) %"class.std::basic_ostream"* @_ZNSolsEi(%"class.std::basic_ostream"* %17, i32 %18)
  %20 = call dereferenceable(272) %"class.std::basic_ostream"* @_ZNSolsEPFRSoS_E(%"class.std::basic_ostream"* %19, %"class.std::basic_ostream"* (%"class.std::basic_ostream"*)* @_ZSt4endlIcSt11char_traitsIcEERSt13basic_ostreamIT_T0_ES6_)
  store i8 0, i8* %6, align 1
  %21 = load i8, i8* %6, align 1
  %22 = trunc i8 %21 to i1
  call void @_ZN9LightBulb9setStatusEb(%struct.LightBulb* %5, i1 zeroext %22)
  %23 = call i32 @_ZNK9LightBulb12getIntensityEv(%struct.LightBulb* %5)
  store i32 %23, i32* %7, align 4
  %24 = call dereferenceable(272) %"class.std::basic_ostream"* @_ZStlsISt11char_traitsIcEERSt13basic_ostreamIcT_ES5_PKc(%"class.std::basic_ostream"* dereferenceable(272) @_ZSt4cout, i8* getelementptr inbounds ([18 x i8], [18 x i8]* @.str.4, i64 0, i64 0))
  %25 = load i8, i8* %6, align 1
  %26 = trunc i8 %25 to i1
  %27 = zext i1 %26 to i64
  %28 = select i1 %26, i8* getelementptr inbounds ([4 x i8], [4 x i8]* @.str.2, i64 0, i64 0), i8* getelementptr inbounds ([3 x i8], [3 x i8]* @.str.1, i64 0, i64 0)
  %29 = call dereferenceable(272) %"class.std::basic_ostream"* @_ZStlsISt11char_traitsIcEERSt13basic_ostreamIcT_ES5_PKc(%"class.std::basic_ostream"* dereferenceable(272) %24, i8* %28)
  %30 = call dereferenceable(272) %"class.std::basic_ostream"* @_ZStlsISt11char_traitsIcEERSt13basic_ostreamIcT_ES5_PKc(%"class.std::basic_ostream"* dereferenceable(272) %29, i8* getelementptr inbounds ([15 x i8], [15 x i8]* @.str.3, i64 0, i64 0))
  %31 = load i32, i32* %7, align 4
  %32 = call dereferenceable(272) %"class.std::basic_ostream"* @_ZNSolsEi(%"class.std::basic_ostream"* %30, i32 %31)
  %33 = call dereferenceable(272) %"class.std::basic_ostream"* @_ZNSolsEPFRSoS_E(%"class.std::basic_ostream"* %32, %"class.std::basic_ostream"* (%"class.std::basic_ostream"*)* @_ZSt4endlIcSt11char_traitsIcEERSt13basic_ostreamIT_T0_ES6_)
  ret i32 0
}

; Function Attrs: noinline optnone uwtable
define linkonce_odr dso_local void @_ZN9LightBulb9setStatusEb(%struct.LightBulb*, i1 zeroext) #5 comdat align 2 {
  %3 = alloca %struct.LightBulb*, align 8
  %4 = alloca i8, align 1
  store %struct.LightBulb* %0, %struct.LightBulb** %3, align 8
  %5 = zext i1 %1 to i8
  store i8 %5, i8* %4, align 1
  %6 = load %struct.LightBulb*, %struct.LightBulb** %3, align 8
  %7 = load i8, i8* %4, align 1
  %8 = trunc i8 %7 to i1
  %9 = getelementptr inbounds %struct.LightBulb, %struct.LightBulb* %6, i32 0, i32 0
  %10 = zext i1 %8 to i8
  store i8 %10, i8* %9, align 4
  call void @_ZN9LightBulb15adjustIntensityEv(%struct.LightBulb* %6)
  ret void
}

; Function Attrs: noinline nounwind optnone uwtable
define linkonce_odr dso_local i32 @_ZNK9LightBulb12getIntensityEv(%struct.LightBulb*) #6 comdat align 2 {
  %2 = alloca %struct.LightBulb*, align 8
  store %struct.LightBulb* %0, %struct.LightBulb** %2, align 8
  %3 = load %struct.LightBulb*, %struct.LightBulb** %2, align 8
  %4 = getelementptr inbounds %struct.LightBulb, %struct.LightBulb* %3, i32 0, i32 1
  %5 = load i32, i32* %4, align 4
  ret i32 %5
}

declare dso_local dereferenceable(272) %"class.std::basic_ostream"* @_ZStlsISt11char_traitsIcEERSt13basic_ostreamIcT_ES5_PKc(%"class.std::basic_ostream"* dereferenceable(272), i8*) #1

declare dso_local dereferenceable(272) %"class.std::basic_ostream"* @_ZNSolsEi(%"class.std::basic_ostream"*, i32) #1

declare dso_local dereferenceable(272) %"class.std::basic_ostream"* @_ZNSolsEPFRSoS_E(%"class.std::basic_ostream"*, %"class.std::basic_ostream"* (%"class.std::basic_ostream"*)*) #1

declare dso_local dereferenceable(272) %"class.std::basic_ostream"* @_ZSt4endlIcSt11char_traitsIcEERSt13basic_ostreamIT_T0_ES6_(%"class.std::basic_ostream"* dereferenceable(272)) #1

; Function Attrs: noinline nounwind optnone uwtable
define linkonce_odr dso_local void @_ZN9LightBulb15adjustIntensityEv(%struct.LightBulb*) #6 comdat align 2 {
  %2 = alloca %struct.LightBulb*, align 8
  store %struct.LightBulb* %0, %struct.LightBulb** %2, align 8
  %3 = load %struct.LightBulb*, %struct.LightBulb** %2, align 8
  %4 = getelementptr inbounds %struct.LightBulb, %struct.LightBulb* %3, i32 0, i32 0
  %5 = load i8, i8* %4, align 4
  %6 = trunc i8 %5 to i1
  br i1 %6, label %7, label %9

7:                                                ; preds = %1
  %8 = getelementptr inbounds %struct.LightBulb, %struct.LightBulb* %3, i32 0, i32 1
  store i32 100, i32* %8, align 4
  br label %11

9:                                                ; preds = %1
  %10 = getelementptr inbounds %struct.LightBulb, %struct.LightBulb* %3, i32 0, i32 1
  store i32 0, i32* %10, align 4
  br label %11

11:                                               ; preds = %9, %7
  ret void
}

; Function Attrs: noinline uwtable
define internal void @_GLOBAL__sub_I_zipper_directflow_bulb_struct.cpp() #0 section ".text.startup" {
  call void @__cxx_global_var_init()
  ret void
}

attributes #0 = { noinline uwtable "correctly-rounded-divide-sqrt-fp-math"="false" "disable-tail-calls"="false" "less-precise-fpmad"="false" "min-legal-vector-width"="0" "no-frame-pointer-elim"="true" "no-frame-pointer-elim-non-leaf" "no-infs-fp-math"="false" "no-jump-tables"="false" "no-nans-fp-math"="false" "no-signed-zeros-fp-math"="false" "no-trapping-math"="false" "stack-protector-buffer-size"="8" "target-cpu"="x86-64" "target-features"="+cx8,+fxsr,+mmx,+sse,+sse2,+x87" "unsafe-fp-math"="false" "use-soft-float"="false" }
attributes #1 = { "correctly-rounded-divide-sqrt-fp-math"="false" "disable-tail-calls"="false" "less-precise-fpmad"="false" "no-frame-pointer-elim"="true" "no-frame-pointer-elim-non-leaf" "no-infs-fp-math"="false" "no-nans-fp-math"="false" "no-signed-zeros-fp-math"="false" "no-trapping-math"="false" "stack-protector-buffer-size"="8" "target-cpu"="x86-64" "target-features"="+cx8,+fxsr,+mmx,+sse,+sse2,+x87" "unsafe-fp-math"="false" "use-soft-float"="false" }
attributes #2 = { nounwind "correctly-rounded-divide-sqrt-fp-math"="false" "disable-tail-calls"="false" "less-precise-fpmad"="false" "no-frame-pointer-elim"="true" "no-frame-pointer-elim-non-leaf" "no-infs-fp-math"="false" "no-nans-fp-math"="false" "no-signed-zeros-fp-math"="false" "no-trapping-math"="false" "stack-protector-buffer-size"="8" "target-cpu"="x86-64" "target-features"="+cx8,+fxsr,+mmx,+sse,+sse2,+x87" "unsafe-fp-math"="false" "use-soft-float"="false" }
attributes #3 = { nounwind }
attributes #4 = { noinline norecurse optnone uwtable "correctly-rounded-divide-sqrt-fp-math"="false" "disable-tail-calls"="false" "less-precise-fpmad"="false" "min-legal-vector-width"="0" "no-frame-pointer-elim"="true" "no-frame-pointer-elim-non-leaf" "no-infs-fp-math"="false" "no-jump-tables"="false" "no-nans-fp-math"="false" "no-signed-zeros-fp-math"="false" "no-trapping-math"="false" "stack-protector-buffer-size"="8" "target-cpu"="x86-64" "target-features"="+cx8,+fxsr,+mmx,+sse,+sse2,+x87" "unsafe-fp-math"="false" "use-soft-float"="false" }
attributes #5 = { noinline optnone uwtable "correctly-rounded-divide-sqrt-fp-math"="false" "disable-tail-calls"="false" "less-precise-fpmad"="false" "min-legal-vector-width"="0" "no-frame-pointer-elim"="true" "no-frame-pointer-elim-non-leaf" "no-infs-fp-math"="false" "no-jump-tables"="false" "no-nans-fp-math"="false" "no-signed-zeros-fp-math"="false" "no-trapping-math"="false" "stack-protector-buffer-size"="8" "target-cpu"="x86-64" "target-features"="+cx8,+fxsr,+mmx,+sse,+sse2,+x87" "unsafe-fp-math"="false" "use-soft-float"="false" }
attributes #6 = { noinline nounwind optnone uwtable "correctly-rounded-divide-sqrt-fp-math"="false" "disable-tail-calls"="false" "less-precise-fpmad"="false" "min-legal-vector-width"="0" "no-frame-pointer-elim"="true" "no-frame-pointer-elim-non-leaf" "no-infs-fp-math"="false" "no-jump-tables"="false" "no-nans-fp-math"="false" "no-signed-zeros-fp-math"="false" "no-trapping-math"="false" "stack-protector-buffer-size"="8" "target-cpu"="x86-64" "target-features"="+cx8,+fxsr,+mmx,+sse,+sse2,+x87" "unsafe-fp-math"="false" "use-soft-float"="false" }

!llvm.module.flags = !{!0}
!llvm.ident = !{!1}

!0 = !{i32 1, !"wchar_size", i32 4}
!1 = !{!"clang version 9.0.0 (https://github.com/llvm/llvm-project.git 0399d5a9682b3cef71c653373e38890c63c4c365)"}
